target datalayout = "e-m:e-p270:32:32-p271:32:32-p272:64:64-i64:64-i128:128-f80:128-n8:16:32:64-S128"
target triple = "x86_64-pc-linux-gnu"

; Function Attrs: mustprogress nounwind uwtable
define dso_local void @meshopt_optimizeMeshlet(ptr noundef %0, ptr noundef %1, i64 noundef %2, i64 noundef %3) #0 {
  %5 = alloca ptr, align 8
  %6 = alloca ptr, align 8
  %7 = alloca i64, align 8
  %8 = alloca i64, align 8
  %9 = alloca ptr, align 8
  %10 = alloca ptr, align 8
  %11 = alloca [255 x i8], align 16
  %12 = alloca i8, align 1
  %13 = alloca i8, align 1
  %14 = alloca i64, align 8
  %15 = alloca i32, align 4
  %16 = alloca i32, align 4
  %17 = alloca i32, align 4
  %18 = alloca i64, align 8
  %19 = alloca i8, align 1
  %20 = alloca i8, align 1
  %21 = alloca i8, align 1
  %22 = alloca i32, align 4
  %23 = alloca i32, align 4
  %24 = alloca i32, align 4
  %25 = alloca i8, align 1
  %26 = alloca i8, align 1
  %27 = alloca i8, align 1
  %28 = alloca [255 x i32], align 16
  %29 = alloca [255 x i8], align 16
  %30 = alloca i64, align 8
  %31 = alloca i64, align 8
  %32 = alloca ptr, align 8
  store ptr %0, ptr %5, align 8, !tbaa !11
  store ptr %1, ptr %6, align 8, !tbaa !13
  store i64 %2, ptr %7, align 8, !tbaa !4
  store i64 %3, ptr %8, align 8, !tbaa !4
  call void @llvm.lifetime.start.p0(i64 8, ptr %9) #11
  %33 = load ptr, ptr %6, align 8, !tbaa !13
  store ptr %33, ptr %9, align 8, !tbaa !13
  call void @llvm.lifetime.start.p0(i64 8, ptr %10) #11
  %34 = load ptr, ptr %5, align 8, !tbaa !11
  store ptr %34, ptr %10, align 8, !tbaa !11
  call void @llvm.lifetime.start.p0(i64 255, ptr %11) #11
  %35 = getelementptr inbounds [255 x i8], ptr %11, i64 0, i64 0
  %36 = load i64, ptr %8, align 8, !tbaa !4
  call void @llvm.memset.p0.i64(ptr align 16 %35, i8 0, i64 %36, i1 false)
  call void @llvm.lifetime.start.p0(i64 1, ptr %12) #11
  store i8 -128, ptr %12, align 1, !tbaa !31
  call void @llvm.lifetime.start.p0(i64 1, ptr %13) #11
  store i8 3, ptr %13, align 1, !tbaa !31
  call void @llvm.lifetime.start.p0(i64 8, ptr %14) #11
  store i64 0, ptr %14, align 8, !tbaa !4
  br label %37

37:                                               ; preds = %200, %4
  %38 = load i64, ptr %14, align 8, !tbaa !4
  %39 = load i64, ptr %7, align 8, !tbaa !4
  %40 = icmp ult i64 %38, %39
  br i1 %40, label %42, label %41

41:                                               ; preds = %37
  store i32 2, ptr %15, align 4
  call void @llvm.lifetime.end.p0(i64 8, ptr %14) #11
  br label %203

42:                                               ; preds = %37
  call void @llvm.lifetime.start.p0(i64 4, ptr %16) #11
  store i32 -1, ptr %16, align 4, !tbaa !23
  call void @llvm.lifetime.start.p0(i64 4, ptr %17) #11
  store i32 -1, ptr %17, align 4, !tbaa !23
  call void @llvm.lifetime.start.p0(i64 8, ptr %18) #11
  %43 = load i64, ptr %14, align 8, !tbaa !4
  store i64 %43, ptr %18, align 8, !tbaa !4
  br label %44

44:                                               ; preds = %127, %42
  %45 = load i64, ptr %18, align 8, !tbaa !4
  %46 = load i64, ptr %7, align 8, !tbaa !4
  %47 = icmp ult i64 %45, %46
  br i1 %47, label %49, label %48

48:                                               ; preds = %44
  store i32 5, ptr %15, align 4
  br label %130

49:                                               ; preds = %44
  call void @llvm.lifetime.start.p0(i64 1, ptr %19) #11
  %50 = load ptr, ptr %9, align 8, !tbaa !13
  %51 = load i64, ptr %18, align 8, !tbaa !4
  %52 = mul i64 %51, 3
  %53 = add i64 %52, 0
  %54 = getelementptr inbounds nuw i8, ptr %50, i64 %53
  %55 = load i8, ptr %54, align 1, !tbaa !31
  store i8 %55, ptr %19, align 1, !tbaa !31
  call void @llvm.lifetime.start.p0(i64 1, ptr %20) #11
  %56 = load ptr, ptr %9, align 8, !tbaa !13
  %57 = load i64, ptr %18, align 8, !tbaa !4
  %58 = mul i64 %57, 3
  %59 = add i64 %58, 1
  %60 = getelementptr inbounds nuw i8, ptr %56, i64 %59
  %61 = load i8, ptr %60, align 1, !tbaa !31
  store i8 %61, ptr %20, align 1, !tbaa !31
  call void @llvm.lifetime.start.p0(i64 1, ptr %21) #11
  %62 = load ptr, ptr %9, align 8, !tbaa !13
  %63 = load i64, ptr %18, align 8, !tbaa !4
  %64 = mul i64 %63, 3
  %65 = add i64 %64, 2
  %66 = getelementptr inbounds nuw i8, ptr %62, i64 %65
  %67 = load i8, ptr %66, align 1, !tbaa !31
  store i8 %67, ptr %21, align 1, !tbaa !31
  call void @llvm.lifetime.start.p0(i64 4, ptr %22) #11
  %68 = load i8, ptr %12, align 1, !tbaa !31
  %69 = zext i8 %68 to i32
  %70 = load i8, ptr %19, align 1, !tbaa !31
  %71 = zext i8 %70 to i64
  %72 = getelementptr inbounds nuw [255 x i8], ptr %11, i64 0, i64 %71
  %73 = load i8, ptr %72, align 1, !tbaa !31
  %74 = zext i8 %73 to i32
  %75 = sub nsw i32 %69, %74
  %76 = trunc i32 %75 to i8
  %77 = zext i8 %76 to i32
  %78 = icmp slt i32 %77, 3
  %79 = zext i1 %78 to i32
  store i32 %79, ptr %22, align 4, !tbaa !23
  call void @llvm.lifetime.start.p0(i64 4, ptr %23) #11
  %80 = load i8, ptr %12, align 1, !tbaa !31
  %81 = zext i8 %80 to i32
  %82 = load i8, ptr %20, align 1, !tbaa !31
  %83 = zext i8 %82 to i64
  %84 = getelementptr inbounds nuw [255 x i8], ptr %11, i64 0, i64 %83
  %85 = load i8, ptr %84, align 1, !tbaa !31
  %86 = zext i8 %85 to i32
  %87 = sub nsw i32 %81, %86
  %88 = trunc i32 %87 to i8
  %89 = zext i8 %88 to i32
  %90 = icmp slt i32 %89, 3
  %91 = zext i1 %90 to i32
  store i32 %91, ptr %23, align 4, !tbaa !23
  call void @llvm.lifetime.start.p0(i64 4, ptr %24) #11
  %92 = load i8, ptr %12, align 1, !tbaa !31
  %93 = zext i8 %92 to i32
  %94 = load i8, ptr %21, align 1, !tbaa !31
  %95 = zext i8 %94 to i64
  %96 = getelementptr inbounds nuw [255 x i8], ptr %11, i64 0, i64 %95
  %97 = load i8, ptr %96, align 1, !tbaa !31
  %98 = zext i8 %97 to i32
  %99 = sub nsw i32 %93, %98
  %100 = trunc i32 %99 to i8
  %101 = zext i8 %100 to i32
  %102 = icmp slt i32 %101, 3
  %103 = zext i1 %102 to i32
  store i32 %103, ptr %24, align 4, !tbaa !23
  %104 = load i32, ptr %22, align 4, !tbaa !23
  %105 = load i32, ptr %23, align 4, !tbaa !23
  %106 = add nsw i32 %104, %105
  %107 = load i32, ptr %24, align 4, !tbaa !23
  %108 = add nsw i32 %106, %107
  %109 = load i32, ptr %17, align 4, !tbaa !23
  %110 = icmp sgt i32 %108, %109
  br i1 %110, label %111, label %123

111:                                              ; preds = %49
  %112 = load i64, ptr %18, align 8, !tbaa !4
  %113 = trunc i64 %112 to i32
  store i32 %113, ptr %16, align 4, !tbaa !23
  %114 = load i32, ptr %22, align 4, !tbaa !23
  %115 = load i32, ptr %23, align 4, !tbaa !23
  %116 = add nsw i32 %114, %115
  %117 = load i32, ptr %24, align 4, !tbaa !23
  %118 = add nsw i32 %116, %117
  store i32 %118, ptr %17, align 4, !tbaa !23
  %119 = load i32, ptr %17, align 4, !tbaa !23
  %120 = icmp sge i32 %119, 2
  br i1 %120, label %121, label %122

121:                                              ; preds = %111
  store i32 5, ptr %15, align 4
  br label %124

122:                                              ; preds = %111
  br label %123

123:                                              ; preds = %122, %49
  store i32 0, ptr %15, align 4
  br label %124

124:                                              ; preds = %123, %121
  call void @llvm.lifetime.end.p0(i64 4, ptr %24) #11
  call void @llvm.lifetime.end.p0(i64 4, ptr %23) #11
  call void @llvm.lifetime.end.p0(i64 4, ptr %22) #11
  call void @llvm.lifetime.end.p0(i64 1, ptr %21) #11
  call void @llvm.lifetime.end.p0(i64 1, ptr %20) #11
  call void @llvm.lifetime.end.p0(i64 1, ptr %19) #11
  %125 = load i32, ptr %15, align 4
  switch i32 %125, label %130 [
    i32 0, label %126
  ]

126:                                              ; preds = %124
  br label %127

127:                                              ; preds = %126
  %128 = load i64, ptr %18, align 8, !tbaa !4
  %129 = add i64 %128, 1
  store i64 %129, ptr %18, align 8, !tbaa !4
  br label %44, !llvm.loop !92

130:                                              ; preds = %124, %48
  call void @llvm.lifetime.end.p0(i64 8, ptr %18) #11
  br label %131

131:                                              ; preds = %130
  call void @llvm.lifetime.start.p0(i64 1, ptr %25) #11
  %132 = load ptr, ptr %9, align 8, !tbaa !13
  %133 = load i32, ptr %16, align 4, !tbaa !23
  %134 = mul nsw i32 %133, 3
  %135 = add nsw i32 %134, 0
  %136 = sext i32 %135 to i64
  %137 = getelementptr inbounds i8, ptr %132, i64 %136
  %138 = load i8, ptr %137, align 1, !tbaa !31
  store i8 %138, ptr %25, align 1, !tbaa !31
  call void @llvm.lifetime.start.p0(i64 1, ptr %26) #11
  %139 = load ptr, ptr %9, align 8, !tbaa !13
  %140 = load i32, ptr %16, align 4, !tbaa !23
  %141 = mul nsw i32 %140, 3
  %142 = add nsw i32 %141, 1
  %143 = sext i32 %142 to i64
  %144 = getelementptr inbounds i8, ptr %139, i64 %143
  %145 = load i8, ptr %144, align 1, !tbaa !31
  store i8 %145, ptr %26, align 1, !tbaa !31
  call void @llvm.lifetime.start.p0(i64 1, ptr %27) #11
  %146 = load ptr, ptr %9, align 8, !tbaa !13
  %147 = load i32, ptr %16, align 4, !tbaa !23
  %148 = mul nsw i32 %147, 3
  %149 = add nsw i32 %148, 2
  %150 = sext i32 %149 to i64
  %151 = getelementptr inbounds i8, ptr %146, i64 %150
  %152 = load i8, ptr %151, align 1, !tbaa !31
  store i8 %152, ptr %27, align 1, !tbaa !31
  %153 = load ptr, ptr %9, align 8, !tbaa !13
  %154 = load i64, ptr %14, align 8, !tbaa !4
  %155 = add i64 %154, 1
  %156 = mul i64 %155, 3
  %157 = getelementptr inbounds nuw i8, ptr %153, i64 %156
  %158 = load ptr, ptr %9, align 8, !tbaa !13
  %159 = load i64, ptr %14, align 8, !tbaa !4
  %160 = mul i64 %159, 3
  %161 = getelementptr inbounds nuw i8, ptr %158, i64 %160
  %162 = load i32, ptr %16, align 4, !tbaa !23
  %163 = sext i32 %162 to i64
  %164 = load i64, ptr %14, align 8, !tbaa !4
  %165 = sub i64 %163, %164
  %166 = mul i64 %165, 3
  %167 = mul i64 %166, 1
  call void @llvm.memmove.p0.p0.i64(ptr align 1 %157, ptr align 1 %161, i64 %167, i1 false)
  %168 = load i8, ptr %25, align 1, !tbaa !31
  %169 = load ptr, ptr %9, align 8, !tbaa !13
  %170 = load i64, ptr %14, align 8, !tbaa !4
  %171 = mul i64 %170, 3
  %172 = add i64 %171, 0
  %173 = getelementptr inbounds nuw i8, ptr %169, i64 %172
  store i8 %168, ptr %173, align 1, !tbaa !31
  %174 = load i8, ptr %26, align 1, !tbaa !31
  %175 = load ptr, ptr %9, align 8, !tbaa !13
  %176 = load i64, ptr %14, align 8, !tbaa !4
  %177 = mul i64 %176, 3
  %178 = add i64 %177, 1
  %179 = getelementptr inbounds nuw i8, ptr %175, i64 %178
  store i8 %174, ptr %179, align 1, !tbaa !31
  %180 = load i8, ptr %27, align 1, !tbaa !31
  %181 = load ptr, ptr %9, align 8, !tbaa !13
  %182 = load i64, ptr %14, align 8, !tbaa !4
  %183 = mul i64 %182, 3
  %184 = add i64 %183, 2
  %185 = getelementptr inbounds nuw i8, ptr %181, i64 %184
  store i8 %180, ptr %185, align 1, !tbaa !31
  %186 = load i8, ptr %12, align 1, !tbaa !31
  %187 = add i8 %186, 1
  store i8 %187, ptr %12, align 1, !tbaa !31
  %188 = load i8, ptr %12, align 1, !tbaa !31
  %189 = load i8, ptr %25, align 1, !tbaa !31
  %190 = zext i8 %189 to i64
  %191 = getelementptr inbounds nuw [255 x i8], ptr %11, i64 0, i64 %190
  store i8 %188, ptr %191, align 1, !tbaa !31
  %192 = load i8, ptr %12, align 1, !tbaa !31
  %193 = load i8, ptr %26, align 1, !tbaa !31
  %194 = zext i8 %193 to i64
  %195 = getelementptr inbounds nuw [255 x i8], ptr %11, i64 0, i64 %194
  store i8 %192, ptr %195, align 1, !tbaa !31
  %196 = load i8, ptr %12, align 1, !tbaa !31
  %197 = load i8, ptr %27, align 1, !tbaa !31
  %198 = zext i8 %197 to i64
  %199 = getelementptr inbounds nuw [255 x i8], ptr %11, i64 0, i64 %198
  store i8 %196, ptr %199, align 1, !tbaa !31
  call void @llvm.lifetime.end.p0(i64 1, ptr %27) #11
  call void @llvm.lifetime.end.p0(i64 1, ptr %26) #11
  call void @llvm.lifetime.end.p0(i64 1, ptr %25) #11
  call void @llvm.lifetime.end.p0(i64 4, ptr %17) #11
  call void @llvm.lifetime.end.p0(i64 4, ptr %16) #11
  br label %200

200:                                              ; preds = %131
  %201 = load i64, ptr %14, align 8, !tbaa !4
  %202 = add i64 %201, 1
  store i64 %202, ptr %14, align 8, !tbaa !4
  br label %37, !llvm.loop !93

203:                                              ; preds = %41
  call void @llvm.lifetime.start.p0(i64 1020, ptr %28) #11
  call void @llvm.lifetime.start.p0(i64 255, ptr %29) #11
  %204 = getelementptr inbounds [255 x i8], ptr %29, i64 0, i64 0
  %205 = load i64, ptr %8, align 8, !tbaa !4
  call void @llvm.memset.p0.i64(ptr align 16 %204, i8 -1, i64 %205, i1 false)
  call void @llvm.lifetime.start.p0(i64 8, ptr %30) #11
  store i64 0, ptr %30, align 8, !tbaa !4
  call void @llvm.lifetime.start.p0(i64 8, ptr %31) #11
  store i64 0, ptr %31, align 8, !tbaa !4
  br label %206

206:                                              ; preds = %245, %203
  %207 = load i64, ptr %31, align 8, !tbaa !4
  %208 = load i64, ptr %7, align 8, !tbaa !4
  %209 = mul i64 %208, 3
  %210 = icmp ult i64 %207, %209
  br i1 %210, label %212, label %211

211:                                              ; preds = %206
  store i32 8, ptr %15, align 4
  call void @llvm.lifetime.end.p0(i64 8, ptr %31) #11
  br label %248

212:                                              ; preds = %206
  call void @llvm.lifetime.start.p0(i64 8, ptr %32) #11
  %213 = load ptr, ptr %9, align 8, !tbaa !13
  %214 = load i64, ptr %31, align 8, !tbaa !4
  %215 = getelementptr inbounds nuw i8, ptr %213, i64 %214
  %216 = load i8, ptr %215, align 1, !tbaa !31
  %217 = zext i8 %216 to i64
  %218 = getelementptr inbounds nuw [255 x i8], ptr %29, i64 0, i64 %217
  store ptr %218, ptr %32, align 8, !tbaa !13
  %219 = load ptr, ptr %32, align 8, !tbaa !13
  %220 = load i8, ptr %219, align 1, !tbaa !31
  %221 = zext i8 %220 to i32
  %222 = icmp eq i32 %221, 255
  br i1 %222, label %223, label %239

223:                                              ; preds = %212
  %224 = load i64, ptr %30, align 8, !tbaa !4
  %225 = trunc i64 %224 to i8
  %226 = load ptr, ptr %32, align 8, !tbaa !13
  store i8 %225, ptr %226, align 1, !tbaa !31
  %227 = load ptr, ptr %10, align 8, !tbaa !11
  %228 = load ptr, ptr %9, align 8, !tbaa !13
  %229 = load i64, ptr %31, align 8, !tbaa !4
  %230 = getelementptr inbounds nuw i8, ptr %228, i64 %229
  %231 = load i8, ptr %230, align 1, !tbaa !31
  %232 = zext i8 %231 to i64
  %233 = getelementptr inbounds nuw i32, ptr %227, i64 %232
  %234 = load i32, ptr %233, align 4, !tbaa !23
  %235 = load i64, ptr %30, align 8, !tbaa !4
  %236 = getelementptr inbounds nuw [255 x i32], ptr %28, i64 0, i64 %235
  store i32 %234, ptr %236, align 4, !tbaa !23
  %237 = load i64, ptr %30, align 8, !tbaa !4
  %238 = add i64 %237, 1
  store i64 %238, ptr %30, align 8, !tbaa !4
  br label %239

239:                                              ; preds = %223, %212
  %240 = load ptr, ptr %32, align 8, !tbaa !13
  %241 = load i8, ptr %240, align 1, !tbaa !31
  %242 = load ptr, ptr %9, align 8, !tbaa !13
  %243 = load i64, ptr %31, align 8, !tbaa !4
  %244 = getelementptr inbounds nuw i8, ptr %242, i64 %243
  store i8 %241, ptr %244, align 1, !tbaa !31
  call void @llvm.lifetime.end.p0(i64 8, ptr %32) #11
  br label %245

245:                                              ; preds = %239
  %246 = load i64, ptr %31, align 8, !tbaa !4
  %247 = add i64 %246, 1
  store i64 %247, ptr %31, align 8, !tbaa !4
  br label %206, !llvm.loop !94

248:                                              ; preds = %211
  %249 = load ptr, ptr %10, align 8, !tbaa !11
  %250 = getelementptr inbounds [255 x i32], ptr %28, i64 0, i64 0
  %251 = load i64, ptr %30, align 8, !tbaa !4
  %252 = mul i64 %251, 4
  call void @llvm.memcpy.p0.p0.i64(ptr align 4 %249, ptr align 16 %250, i64 %252, i1 false)
  call void @llvm.lifetime.end.p0(i64 8, ptr %30) #11
  call void @llvm.lifetime.end.p0(i64 255, ptr %29) #11
  call void @llvm.lifetime.end.p0(i64 1020, ptr %28) #11
  call void @llvm.lifetime.end.p0(i64 1, ptr %13) #11
  call void @llvm.lifetime.end.p0(i64 1, ptr %12) #11
  call void @llvm.lifetime.end.p0(i64 255, ptr %11) #11
  call void @llvm.lifetime.end.p0(i64 8, ptr %10) #11
  call void @llvm.lifetime.end.p0(i64 8, ptr %9) #11
  ret void
}