; Function Attrs: mustprogress nofree norecurse nosync nounwind memory(argmem: readwrite) uwtable
define dso_local void @meshopt_optimizeMeshlet(ptr noundef captures(none) %0, ptr noundef captures(none) %1, i64 noundef %2, i64 noundef %3) local_unnamed_addr #7 {
  %5 = alloca [255 x i8], align 16
  %6 = alloca [255 x i32], align 16
  %7 = alloca [255 x i8], align 16
  call void @llvm.lifetime.start.p0(i64 255, ptr nonnull %5) #17
  call void @llvm.memset.p0.i64(ptr nonnull align 16 %5, i8 0, i64 %3, i1 false)
  %.not = icmp eq i64 %2, 0
  br i1 %.not, label %._crit_edge.thread, label %.preheader

._crit_edge.thread:                               ; preds = %4
  call void @llvm.lifetime.start.p0(i64 1020, ptr nonnull %6) #17
  call void @llvm.lifetime.start.p0(i64 255, ptr nonnull %7) #17
  br label %._crit_edge99

.preheader:                                       ; preds = %4, %42
  %.095 = phi i8 [ %61, %42 ], [ -128, %4 ]
  %.08094 = phi i64 [ %51, %42 ], [ 0, %4 ]
  br label %9

.lr.ph.preheader:                                 ; preds = %42
  call void @llvm.lifetime.start.p0(i64 1020, ptr nonnull %6) #17
  call void @llvm.lifetime.start.p0(i64 255, ptr nonnull %7) #17
  call void @llvm.memset.p0.i64(ptr nonnull align 16 %7, i8 -1, i64 %3, i1 false)
  %8 = mul i64 %2, 3
  %umax = tail call i64 @llvm.umax.i64(i64 %8, i64 1)
  br label %.lr.ph

9:                                                ; preds = %.preheader, %40
  %.08293 = phi i32 [ -1, %.preheader ], [ %.3, %40 ]
  %.08492 = phi i32 [ -1, %.preheader ], [ %.286, %40 ]
  %.08791 = phi i64 [ %.08094, %.preheader ], [ %41, %40 ]
  %10 = mul i64 %.08791, 3
  %11 = getelementptr inbounds nuw i8, ptr %1, i64 %10
  %12 = load i8, ptr %11, align 1, !tbaa !42
  %13 = getelementptr i8, ptr %11, i64 1
  %14 = load i8, ptr %13, align 1, !tbaa !42
  %15 = getelementptr i8, ptr %11, i64 2
  %16 = load i8, ptr %15, align 1, !tbaa !42
  %17 = zext i8 %12 to i64
  %18 = getelementptr inbounds nuw [255 x i8], ptr %5, i64 0, i64 %17
  %19 = load i8, ptr %18, align 1, !tbaa !42
  %20 = sub i8 %.095, %19
  %21 = icmp ult i8 %20, 3
  %22 = zext i1 %21 to i32
  %23 = zext i8 %14 to i64
  %24 = getelementptr inbounds nuw [255 x i8], ptr %5, i64 0, i64 %23
  %25 = load i8, ptr %24, align 1, !tbaa !42
  %26 = sub i8 %.095, %25
  %27 = icmp ult i8 %26, 3
  %28 = zext i1 %27 to i32
  %29 = zext i8 %16 to i64
  %30 = getelementptr inbounds nuw [255 x i8], ptr %5, i64 0, i64 %29
  %31 = load i8, ptr %30, align 1, !tbaa !42
  %32 = sub i8 %.095, %31
  %33 = icmp ult i8 %32, 3
  %34 = zext i1 %33 to i32
  %35 = add nuw nsw i32 %28, %22
  %36 = add nuw nsw i32 %35, %34
  %37 = icmp sle i32 %36, %.08492
  %38 = trunc i64 %.08791 to i32
  %39 = icmp samesign ult i32 %36, 2
  %.3 = select i1 %37, i32 %.08293, i32 %38
  %cond = select i1 %37, i1 true, i1 %39
  br i1 %cond, label %40, label %42

40:                                               ; preds = %9
  %.286 = tail call i32 @llvm.smax.i32(i32 %36, i32 %.08492)
  %41 = add i64 %.08791, 1
  %exitcond.not = icmp eq i64 %41, %2
  br i1 %exitcond.not, label %42, label %9, !llvm.loop !74

42:                                               ; preds = %40, %9
  %43 = mul nsw i32 %.3, 3
  %44 = sext i32 %43 to i64
  %45 = getelementptr inbounds i8, ptr %1, i64 %44
  %46 = load i8, ptr %45, align 1, !tbaa !42
  %47 = getelementptr i8, ptr %45, i64 1
  %48 = load i8, ptr %47, align 1, !tbaa !42
  %49 = getelementptr i8, ptr %45, i64 2
  %50 = load i8, ptr %49, align 1, !tbaa !42
  %51 = add nuw i64 %.08094, 1
  %52 = mul i64 %51, 3
  %53 = getelementptr inbounds nuw i8, ptr %1, i64 %52
  %54 = mul i64 %.08094, 3
  %55 = getelementptr inbounds nuw i8, ptr %1, i64 %54
  %56 = sext i32 %.3 to i64
  %57 = sub i64 %56, %.08094
  %58 = mul i64 %57, 3
  tail call void @llvm.memmove.p0.p0.i64(ptr nonnull align 1 %53, ptr align 1 %55, i64 %58, i1 false)
  store i8 %46, ptr %55, align 1, !tbaa !42
  %59 = getelementptr i8, ptr %55, i64 1
  store i8 %48, ptr %59, align 1, !tbaa !42
  %60 = getelementptr i8, ptr %55, i64 2
  store i8 %50, ptr %60, align 1, !tbaa !42
  %61 = add i8 %.095, 1
  %62 = zext i8 %46 to i64
  %63 = getelementptr inbounds nuw [255 x i8], ptr %5, i64 0, i64 %62
  store i8 %61, ptr %63, align 1, !tbaa !42
  %64 = zext i8 %48 to i64
  %65 = getelementptr inbounds nuw [255 x i8], ptr %5, i64 0, i64 %64
  store i8 %61, ptr %65, align 1, !tbaa !42
  %66 = zext i8 %50 to i64
  %67 = getelementptr inbounds nuw [255 x i8], ptr %5, i64 0, i64 %66
  store i8 %61, ptr %67, align 1, !tbaa !42
  %exitcond101.not = icmp eq i64 %51, %2
  br i1 %exitcond101.not, label %.lr.ph.preheader, label %.preheader, !llvm.loop !75

._crit_edge99.loopexit:                           ; preds = %81
  %68 = shl i64 %.1, 2
  br label %._crit_edge99

._crit_edge99:                                    ; preds = %._crit_edge.thread, %._crit_edge99.loopexit
  %.079.lcssa = phi i64 [ %68, %._crit_edge99.loopexit ], [ 0, %._crit_edge.thread ]
  call void @llvm.memcpy.p0.p0.i64(ptr align 4 %0, ptr nonnull align 16 %6, i64 %.079.lcssa, i1 false)
  call void @llvm.lifetime.end.p0(i64 255, ptr nonnull %7) #17
  call void @llvm.lifetime.end.p0(i64 1020, ptr nonnull %6) #17
  call void @llvm.lifetime.end.p0(i64 255, ptr nonnull %5) #17
  ret void

.lr.ph:                                           ; preds = %.lr.ph.preheader, %81
  %.07897 = phi i64 [ %83, %81 ], [ 0, %.lr.ph.preheader ]
  %.07996 = phi i64 [ %.1, %81 ], [ 0, %.lr.ph.preheader ]
  %69 = getelementptr inbounds nuw i8, ptr %1, i64 %.07897
  %70 = load i8, ptr %69, align 1, !tbaa !42
  %71 = zext i8 %70 to i64
  %72 = getelementptr inbounds nuw [255 x i8], ptr %7, i64 0, i64 %71
  %73 = load i8, ptr %72, align 1, !tbaa !42
  %74 = icmp eq i8 %73, -1
  br i1 %74, label %75, label %81

75:                                               ; preds = %.lr.ph
  %76 = trunc i64 %.07996 to i8
  store i8 %76, ptr %72, align 1, !tbaa !42
  %77 = getelementptr inbounds nuw i32, ptr %0, i64 %71
  %78 = load i32, ptr %77, align 4, !tbaa !16
  %79 = getelementptr inbounds nuw [255 x i32], ptr %6, i64 0, i64 %.07996
  store i32 %78, ptr %79, align 4, !tbaa !16
  %80 = add i64 %.07996, 1
  br label %81

81:                                               ; preds = %75, %.lr.ph
  %82 = phi i8 [ %76, %75 ], [ %73, %.lr.ph ]
  %.1 = phi i64 [ %80, %75 ], [ %.07996, %.lr.ph ]
  store i8 %82, ptr %69, align 1, !tbaa !42
  %83 = add nuw i64 %.07897, 1
  %exitcond102.not = icmp eq i64 %83, %umax
  br i1 %exitcond102.not, label %._crit_edge99.loopexit, label %.lr.ph, !llvm.loop !76
}